target datalayout = "e-m:e-p270:32:32-p271:32:32-p272:64:64-i64:64-i128:128-f80:128-n8:16:32:64-S128"
target triple = "x86_64-pc-linux-gnu"

%"class.cvc5::internal::FatalStream" = type { i8 }

@.str.4 = private unnamed_addr constant [4 x i8] c"all\00", align 1
@.str.5 = private unnamed_addr constant [122 x i8] c"generated/home/dtcxzyw/WorkSpace/Projects/compilers/llvm-opt-benchmark/bench/cvc5/bench_build/src/options/smt_options.cpp\00", align 1
@.str.6 = private unnamed_addr constant [26 x i8] c"Unreachable code reached \00", align 1
@.str.29 = private unnamed_addr constant [8 x i8] c"default\00", align 1
@.str.30 = private unnamed_addr constant [12 x i8] c"assumptions\00", align 1
@.str.31 = private unnamed_addr constant [11 x i8] c"conjecture\00", align 1
@.str.32 = private unnamed_addr constant [7 x i8] c"shared\00", align 1
@__PRETTY_FUNCTION__._ZN4cvc58internal7optionslsERSoNS1_16InterpolantsModeE = private unnamed_addr constant [84 x i8] c"std::ostream &cvc5::internal::options::operator<<(std::ostream &, InterpolantsMode)\00", align 1

; Function Attrs: mustprogress uwtable
define hidden noundef nonnull align 8 dereferenceable(8) ptr @_ZN4cvc58internal7optionslsERSoNS1_16InterpolantsModeE(ptr noundef nonnull align 8 dereferenceable(8) %0, i32 noundef %1) #4 personality ptr @__gxx_personality_v0 {
  %3 = alloca ptr, align 8
  %4 = alloca ptr, align 8
  %5 = alloca i32, align 4
  %6 = alloca %"class.cvc5::internal::FatalStream", align 1
  %7 = alloca ptr, align 8
  %8 = alloca i32, align 4
  store ptr %0, ptr %4, align 8, !tbaa !3
  store i32 %1, ptr %5, align 4, !tbaa !30
  %9 = load i32, ptr %5, align 4, !tbaa !30
  switch i32 %9, label %25 [
    i32 0, label %10
    i32 1, label %13
    i32 2, label %16
    i32 3, label %19
    i32 4, label %22
  ]

10:                                               ; preds = %2
  %11 = load ptr, ptr %4, align 8, !tbaa !3
  %12 = call noundef nonnull align 8 dereferenceable(8) ptr @_ZStlsISt11char_traitsIcEERSt13basic_ostreamIcT_ES5_PKc(ptr noundef nonnull align 8 dereferenceable(8) %11, ptr noundef @.str.29)
  store ptr %12, ptr %3, align 8
  br label %35

13:                                               ; preds = %2
  %14 = load ptr, ptr %4, align 8, !tbaa !3
  %15 = call noundef nonnull align 8 dereferenceable(8) ptr @_ZStlsISt11char_traitsIcEERSt13basic_ostreamIcT_ES5_PKc(ptr noundef nonnull align 8 dereferenceable(8) %14, ptr noundef @.str.30)
  store ptr %15, ptr %3, align 8
  br label %35

16:                                               ; preds = %2
  %17 = load ptr, ptr %4, align 8, !tbaa !3
  %18 = call noundef nonnull align 8 dereferenceable(8) ptr @_ZStlsISt11char_traitsIcEERSt13basic_ostreamIcT_ES5_PKc(ptr noundef nonnull align 8 dereferenceable(8) %17, ptr noundef @.str.31)
  store ptr %18, ptr %3, align 8
  br label %35

19:                                               ; preds = %2
  %20 = load ptr, ptr %4, align 8, !tbaa !3
  %21 = call noundef nonnull align 8 dereferenceable(8) ptr @_ZStlsISt11char_traitsIcEERSt13basic_ostreamIcT_ES5_PKc(ptr noundef nonnull align 8 dereferenceable(8) %20, ptr noundef @.str.32)
  store ptr %21, ptr %3, align 8
  br label %35

22:                                               ; preds = %2
  %23 = load ptr, ptr %4, align 8, !tbaa !3
  %24 = call noundef nonnull align 8 dereferenceable(8) ptr @_ZStlsISt11char_traitsIcEERSt13basic_ostreamIcT_ES5_PKc(ptr noundef nonnull align 8 dereferenceable(8) %23, ptr noundef @.str.4)
  store ptr %24, ptr %3, align 8
  br label %35

25:                                               ; preds = %2
  call void @llvm.lifetime.start.p0(i64 1, ptr %6) #3
  call void @_ZN4cvc58internal11FatalStreamC1EPKcS3_i(ptr noundef nonnull align 1 dereferenceable(1) %6, ptr noundef @__PRETTY_FUNCTION__._ZN4cvc58internal7optionslsERSoNS1_16InterpolantsModeE, ptr noundef @.str.5, i32 noundef 184)
  %26 = invoke noundef nonnull align 8 dereferenceable(8) ptr @_ZN4cvc58internal11FatalStream6streamEv(ptr noundef nonnull align 1 dereferenceable(1) %6)
          to label %27 unwind label %30

27:                                               ; preds = %25
  %28 = invoke noundef nonnull align 8 dereferenceable(8) ptr @_ZStlsISt11char_traitsIcEERSt13basic_ostreamIcT_ES5_PKc(ptr noundef nonnull align 8 dereferenceable(8) %26, ptr noundef @.str.6)
          to label %29 unwind label %30

29:                                               ; preds = %27
  call void @_ZN4cvc58internal11FatalStreamD1Ev(ptr noundef nonnull align 1 dereferenceable(1) %6) #15
  unreachable

30:                                               ; preds = %27, %25
  %31 = landingpad { ptr, i32 }
          cleanup
  %32 = extractvalue { ptr, i32 } %31, 0
  store ptr %32, ptr %7, align 8
  %33 = extractvalue { ptr, i32 } %31, 1
  store i32 %33, ptr %8, align 4
  call void @_ZN4cvc58internal11FatalStreamD1Ev(ptr noundef nonnull align 1 dereferenceable(1) %6) #15
  unreachable

34:                                               ; No predecessors!
  call void @llvm.lifetime.end.p0(i64 1, ptr %6) #3
  br label %37

35:                                               ; preds = %22, %19, %16, %13, %10
  %36 = load ptr, ptr %3, align 8
  ret ptr %36

37:                                               ; preds = %34
  %38 = load ptr, ptr %7, align 8
  %39 = load i32, ptr %8, align 4
  %40 = insertvalue { ptr, i32 } poison, ptr %38, 0
  %41 = insertvalue { ptr, i32 } %40, i32 %39, 1
  resume { ptr, i32 } %41
}